; Function Attrs: mustprogress nounwind uwtable
define hidden void @_ZN14HandshakeState15do_self_suspendEv(ptr noundef nonnull align 8 dereferenceable(131) %0) local_unnamed_addr #0 align 2 {
  %2 = getelementptr inbounds i8, ptr %0, i64 129
  %3 = load volatile i8, ptr %2, align 1
  %4 = trunc i8 %3 to i1
  br i1 %4, label %.lr.ph, label %._crit_edge

.lr.ph:                                           ; preds = %1
  %5 = getelementptr inbounds i8, ptr %0, i64 16
  br label %6

6:                                                ; preds = %.lr.ph, %11
  %7 = load volatile ptr, ptr getelementptr inbounds (i8, ptr @_ZN16LogTagSetMappingILN6LogTag4typeE159ELS1_153ELS1_0ELS1_0ELS1_0ELS1_0EE7_tagsetE, i64 48), align 8
  %.not1 = icmp eq ptr %7, null
  br i1 %.not1, label %11, label %8

8:                                                ; preds = %6
  %9 = load ptr, ptr %0, align 8
  %10 = ptrtoint ptr %9 to i64
  tail call void (ptr, ...) @_ZN7LogImplILN6LogTag4typeE159ELS1_153ELS1_0ELS1_0ELS1_0ELS1_0EE5writeILN8LogLevel4typeE1EEEvPKcz(ptr noundef nonnull @.str.26, i64 noundef %10)
  br label %11

11:                                               ; preds = %6, %8
  %12 = tail call noundef zeroext i1 @_ZN7Monitor28wait_without_safepoint_checkEm(ptr noundef nonnull align 8 dereferenceable(104) %5, i64 noundef 0) #11
  %13 = load volatile i8, ptr %2, align 1
  %14 = trunc i8 %13 to i1
  br i1 %14, label %6, label %._crit_edge, !llvm.loop !24

._crit_edge:                                      ; preds = %11, %1
  %15 = load volatile ptr, ptr getelementptr inbounds (i8, ptr @_ZN16LogTagSetMappingILN6LogTag4typeE159ELS1_153ELS1_0ELS1_0ELS1_0ELS1_0EE7_tagsetE, i64 48), align 8
  %.not = icmp eq ptr %15, null
  br i1 %.not, label %19, label %16

16:                                               ; preds = %._crit_edge
  %17 = load ptr, ptr %0, align 8
  %18 = ptrtoint ptr %17 to i64
  tail call void (ptr, ...) @_ZN7LogImplILN6LogTag4typeE159ELS1_153ELS1_0ELS1_0ELS1_0ELS1_0EE5writeILN8LogLevel4typeE1EEEvPKcz(ptr noundef nonnull @.str.27, i64 noundef %18)
  br label %19

19:                                               ; preds = %._crit_edge, %16
  ret void
}